target datalayout = "e-m:e-p270:32:32-p271:32:32-p272:64:64-i64:64-i128:128-f80:128-n8:16:32:64-S128"
target triple = "x86_64-pc-linux-gnu"

%"class.LIEF::PE::ResourceFixedFileInfo" = type { %"class.LIEF::Object", i32, i32, i32, i32, i32, i32, i32, i32, i64, i64, i64, i32, i32 }
%"class.LIEF::Object" = type { ptr }

; Function Attrs: mustprogress uwtable
define void @_ZN4LIEF2PE21ResourceFixedFileInfoC2Ev(ptr noundef nonnull align 8 dereferenceable(72) %0) unnamed_addr #0 align 2 {
  %2 = alloca ptr, align 8
  store ptr %0, ptr %2, align 8
  %3 = load ptr, ptr %2, align 8
  call void @_ZN4LIEF6ObjectC2Ev(ptr noundef nonnull align 8 dereferenceable(8) %3)
  store ptr getelementptr inbounds ({ [7 x ptr] }, ptr @_ZTVN4LIEF2PE21ResourceFixedFileInfoE, i32 0, i32 0, i32 2), ptr %3, align 8
  %4 = getelementptr inbounds %"class.LIEF::PE::ResourceFixedFileInfo", ptr %3, i32 0, i32 1
  store i32 -17890115, ptr %4, align 8
  %5 = getelementptr inbounds %"class.LIEF::PE::ResourceFixedFileInfo", ptr %3, i32 0, i32 2
  store i32 0, ptr %5, align 4
  %6 = getelementptr inbounds %"class.LIEF::PE::ResourceFixedFileInfo", ptr %3, i32 0, i32 3
  store i32 0, ptr %6, align 8
  %7 = getelementptr inbounds %"class.LIEF::PE::ResourceFixedFileInfo", ptr %3, i32 0, i32 4
  store i32 0, ptr %7, align 4
  %8 = getelementptr inbounds %"class.LIEF::PE::ResourceFixedFileInfo", ptr %3, i32 0, i32 5
  store i32 0, ptr %8, align 8
  %9 = getelementptr inbounds %"class.LIEF::PE::ResourceFixedFileInfo", ptr %3, i32 0, i32 6
  store i32 0, ptr %9, align 4
  %10 = getelementptr inbounds %"class.LIEF::PE::ResourceFixedFileInfo", ptr %3, i32 0, i32 7
  store i32 0, ptr %10, align 8
  %11 = getelementptr inbounds %"class.LIEF::PE::ResourceFixedFileInfo", ptr %3, i32 0, i32 8
  store i32 0, ptr %11, align 4
  %12 = getelementptr inbounds %"class.LIEF::PE::ResourceFixedFileInfo", ptr %3, i32 0, i32 9
  store i64 0, ptr %12, align 8
  %13 = getelementptr inbounds %"class.LIEF::PE::ResourceFixedFileInfo", ptr %3, i32 0, i32 10
  store i64 0, ptr %13, align 8
  %14 = getelementptr inbounds %"class.LIEF::PE::ResourceFixedFileInfo", ptr %3, i32 0, i32 11
  store i64 0, ptr %14, align 8
  %15 = getelementptr inbounds %"class.LIEF::PE::ResourceFixedFileInfo", ptr %3, i32 0, i32 12
  store i32 0, ptr %15, align 8
  %16 = getelementptr inbounds %"class.LIEF::PE::ResourceFixedFileInfo", ptr %3, i32 0, i32 13
  store i32 0, ptr %16, align 4
  ret void
}