; Function Attrs: mustprogress uwtable
define void @_ZN4LIEF2PE21ResourceFixedFileInfoC2Ev(ptr noundef nonnull align 8 dereferenceable(72) %0) unnamed_addr #0 align 2 {
  tail call void @_ZN4LIEF6ObjectC2Ev(ptr noundef nonnull align 8 dereferenceable(8) %0)
  store ptr getelementptr inbounds ({ [7 x ptr] }, ptr @_ZTVN4LIEF2PE21ResourceFixedFileInfoE, i64 0, i32 0, i64 2), ptr %0, align 8
  %2 = getelementptr inbounds i8, ptr %0, i64 8
  store i32 -17890115, ptr %2, align 8
  %3 = getelementptr inbounds i8, ptr %0, i64 12
  tail call void @llvm.memset.p0.i64(ptr noundef nonnull align 4 dereferenceable(60) %3, i8 0, i64 60, i1 false)
  ret void
}